; Function Attrs: mustprogress uwtable
define hidden noundef i64 @_ZN6Assimp3FBX14ParseTokenAsIDERKNS0_5TokenERPKc(ptr nocapture noundef nonnull readonly align 8 dereferenceable(36) %t, ptr nocapture noundef nonnull writeonly align 8 dereferenceable(8) %err_out) local_unnamed_addr #3 {
entry:
  %length = alloca i32, align 4
  %out = alloca ptr, align 8
  store ptr null, ptr %err_out, align 8
  %type.i = getelementptr inbounds i8, ptr %t, i64 16
  %0 = load i32, ptr %type.i, align 8
  %cmp.not = icmp eq i32 %0, 2
  br i1 %cmp.not, label %if.end, label %if.then

if.then:                                          ; preds = %entry
  store ptr @.str.9, ptr %err_out, align 8
  br label %return

if.end:                                           ; preds = %entry
  %column.i = getelementptr inbounds i8, ptr %t, i64 32
  %1 = load i32, ptr %column.i, align 8
  %cmp.i = icmp eq i32 %1, -1
  br i1 %cmp.i, label %if.then2, label %if.end9

if.then2:                                         ; preds = %if.end
  %2 = load ptr, ptr %t, align 8
  %3 = load i8, ptr %2, align 1
  %cmp4.not = icmp eq i8 %3, 76
  br i1 %cmp4.not, label %if.end6, label %if.then5

if.then5:                                         ; preds = %if.then2
  store ptr @.str.10, ptr %err_out, align 8
  br label %return

if.end6:                                          ; preds = %if.then2
  %add.ptr = getelementptr inbounds i8, ptr %2, i64 1
  %add.ptr.val = load i64, ptr %add.ptr, align 1
  br label %return

if.end9:                                          ; preds = %if.end
  %send.i12 = getelementptr inbounds i8, ptr %t, i64 8
  %4 = load ptr, ptr %send.i12, align 8
  %5 = load ptr, ptr %t, align 8
  %sub.ptr.lhs.cast = ptrtoint ptr %4 to i64
  %sub.ptr.rhs.cast = ptrtoint ptr %5 to i64
  %sub.ptr.sub = sub i64 %sub.ptr.lhs.cast, %sub.ptr.rhs.cast
  %conv12 = trunc i64 %sub.ptr.sub to i32
  store i32 %conv12, ptr %length, align 4
  store ptr null, ptr %out, align 8
  %call15 = call noundef i64 @_ZN6Assimp12strtoul10_64I17DeadlyImportErrorEEmPKcPS3_Pj(ptr noundef %5, ptr noundef nonnull %out, ptr noundef nonnull %length)
  %6 = load ptr, ptr %out, align 8
  %7 = load ptr, ptr %send.i12, align 8
  %cmp17 = icmp ugt ptr %6, %7
  br i1 %cmp17, label %if.then18, label %return

if.then18:                                        ; preds = %if.end9
  store ptr @.str.11, ptr %err_out, align 8
  br label %return

return:                                           ; preds = %if.end9, %if.then18, %if.end6, %if.then5, %if.then
  %retval.0 = phi i64 [ 0, %if.then ], [ 0, %if.then5 ], [ %add.ptr.val, %if.end6 ], [ 0, %if.then18 ], [ %call15, %if.end9 ]
  ret i64 %retval.0
}